target datalayout = "e-m:e-p270:32:32-p271:32:32-p272:64:64-i64:64-i128:128-f80:128-n8:16:32:64-S128"
target triple = "x86_64-pc-linux-gnu"

%"class.icu_77::ICUDataTable" = type { ptr, %"class.icu_77::Locale" }
%"class.icu_77::Locale" = type <{ %"class.icu_77::UObject", [12 x i8], [6 x i8], [4 x i8], [2 x i8], i32, [4 x i8], ptr, [157 x i8], [3 x i8], ptr, i8, [7 x i8] }>
%"class.icu_77::UObject" = type { ptr }
%"class.icu_77::UnicodeString" = type { %"class.icu_77::Replaceable", %"union.icu_77::UnicodeString::StackBufferOrFields" }
%"class.icu_77::Replaceable" = type { %"class.icu_77::UObject" }
%"union.icu_77::UnicodeString::StackBufferOrFields" = type { %struct.anon.0, [32 x i8] }
%struct.anon.0 = type { i16, i32, i32, ptr }
%"class.icu_77::LocaleDisplayNamesImpl" = type <{ %"class.icu_77::LocaleDisplayNames", %"class.icu_77::Locale", i32, [4 x i8], %"class.icu_77::ICUDataTable", %"class.icu_77::ICUDataTable", %"class.icu_77::SimpleFormatter", %"class.icu_77::SimpleFormatter", %"class.icu_77::SimpleFormatter", i32, [4 x i8], ptr, %"class.icu_77::UnicodeString", %"class.icu_77::UnicodeString", %"class.icu_77::UnicodeString", %"class.icu_77::UnicodeString", i32, i32, [6 x i8], [2 x i8] }>
%"class.icu_77::LocaleDisplayNames" = type { %"class.icu_77::UObject" }
%"class.icu_77::SimpleFormatter" = type { [8 x i8], %"class.icu_77::UnicodeString" }

@.str.13 = private unnamed_addr constant [14 x i8] c"Scripts%short\00", align 1
@.str.14 = private unnamed_addr constant [8 x i8] c"Scripts\00", align 1

; Function Attrs: inlinehint mustprogress nounwind uwtable
define linkonce_odr noundef i32 @_ZNK6icu_7713UnicodeString14getShortLengthEv(ptr noundef nonnull align 8 dereferenceable(64) %0) #2 comdat align 2 {
  %2 = alloca ptr, align 8
  store ptr %0, ptr %2, align 8, !tbaa !31
  %3 = load ptr, ptr %2, align 8
  %4 = getelementptr inbounds nuw %"class.icu_77::UnicodeString", ptr %3, i32 0, i32 1
  %5 = getelementptr inbounds nuw %struct.anon.0, ptr %4, i32 0, i32 0
  %6 = load i16, ptr %5, align 8, !tbaa !58
  %7 = sext i16 %6 to i32
  %8 = ashr i32 %7, 5
  ret i32 %8
}

; Function Attrs: inlinehint mustprogress nounwind uwtable
define linkonce_odr noundef signext i8 @_ZNK6icu_7713UnicodeString14hasShortLengthEv(ptr noundef nonnull align 8 dereferenceable(64) %0) #2 comdat align 2 {
  %2 = alloca ptr, align 8
  store ptr %0, ptr %2, align 8, !tbaa !31
  %3 = load ptr, ptr %2, align 8
  %4 = getelementptr inbounds nuw %"class.icu_77::UnicodeString", ptr %3, i32 0, i32 1
  %5 = getelementptr inbounds nuw %struct.anon.0, ptr %4, i32 0, i32 0
  %6 = load i16, ptr %5, align 8, !tbaa !58
  %7 = sext i16 %6 to i32
  %8 = icmp sge i32 %7, 0
  %9 = zext i1 %8 to i8
  ret i8 %9
}

; Function Attrs: inlinehint mustprogress uwtable
define linkonce_odr noundef i32 @_ZNK6icu_7713UnicodeString6lengthEv(ptr noundef nonnull align 8 dereferenceable(64) %0) #3 comdat align 2 {
  %2 = alloca ptr, align 8
  store ptr %0, ptr %2, align 8, !tbaa !31
  %3 = load ptr, ptr %2, align 8
  %4 = call noundef signext i8 @_ZNK6icu_7713UnicodeString14hasShortLengthEv(ptr noundef nonnull align 8 dereferenceable(64) %3)
  %5 = icmp ne i8 %4, 0
  br i1 %5, label %6, label %8

6:                                                ; preds = %1
  %7 = call noundef i32 @_ZNK6icu_7713UnicodeString14getShortLengthEv(ptr noundef nonnull align 8 dereferenceable(64) %3)
  br label %12

8:                                                ; preds = %1
  %9 = getelementptr inbounds nuw %"class.icu_77::UnicodeString", ptr %3, i32 0, i32 1
  %10 = getelementptr inbounds nuw %struct.anon.0, ptr %9, i32 0, i32 1
  %11 = load i32, ptr %10, align 4, !tbaa !58
  br label %12

12:                                               ; preds = %8, %6
  %13 = phi i32 [ %7, %6 ], [ %11, %8 ]
  ret i32 %13
}

; Function Attrs: inlinehint mustprogress uwtable
define linkonce_odr noundef nonnull align 8 dereferenceable(64) ptr @_ZN6icu_7713UnicodeString5setToEPKDsi(ptr noundef nonnull align 8 dereferenceable(64) %0, ptr noundef %1, i32 noundef %2) #3 comdat align 2 {
  %4 = alloca ptr, align 8
  %5 = alloca ptr, align 8
  %6 = alloca i32, align 4
  store ptr %0, ptr %4, align 8, !tbaa !31
  store ptr %1, ptr %5, align 8, !tbaa !33
  store i32 %2, ptr %6, align 4, !tbaa !14
  %7 = load ptr, ptr %4, align 8
  call void @_ZN6icu_7713UnicodeString7unBogusEv(ptr noundef nonnull align 8 dereferenceable(64) %7)
  %8 = call noundef i32 @_ZNK6icu_7713UnicodeString6lengthEv(ptr noundef nonnull align 8 dereferenceable(64) %7)
  %9 = load ptr, ptr %5, align 8, !tbaa !33
  %10 = load i32, ptr %6, align 4, !tbaa !14
  %11 = call noundef nonnull align 8 dereferenceable(64) ptr @_ZN6icu_7713UnicodeString9doReplaceEiiPKDsii(ptr noundef nonnull align 8 dereferenceable(64) %7, i32 noundef 0, i32 noundef %8, ptr noundef %9, i32 noundef 0, i32 noundef %10)
  ret ptr %11
}

; Function Attrs: inlinehint mustprogress nounwind uwtable
define internal noundef signext i8 @_ZL9U_SUCCESS10UErrorCode(i32 noundef %0) #2 {
  %2 = alloca i32, align 4
  store i32 %0, ptr %2, align 4, !tbaa !15
  %3 = load i32, ptr %2, align 4, !tbaa !15
  %4 = icmp sle i32 %3, 0
  %5 = zext i1 %4 to i8
  ret i8 %5
}

; Function Attrs: inlinehint mustprogress nounwind uwtable
define linkonce_odr noundef ptr @_ZNK6icu_776Locale7getNameEv(ptr noundef nonnull align 8 dereferenceable(217) %0) #2 comdat align 2 {
  %2 = alloca ptr, align 8
  store ptr %0, ptr %2, align 8, !tbaa !25
  %3 = load ptr, ptr %2, align 8
  %4 = getelementptr inbounds nuw %"class.icu_77::Locale", ptr %3, i32 0, i32 7
  %5 = load ptr, ptr %4, align 8, !tbaa !35
  ret ptr %5
}

; Function Attrs: mustprogress uwtable
define noundef nonnull align 8 dereferenceable(64) ptr @_ZNK6icu_7712ICUDataTable13getNoFallbackEPKcS2_S2_RNS_13UnicodeStringE(ptr noundef nonnull align 8 dereferenceable(232) %0, ptr noundef %1, ptr noundef %2, ptr noundef %3, ptr noundef nonnull align 8 dereferenceable(64) %4) #1 align 2 {
  %6 = alloca ptr, align 8
  %7 = alloca ptr, align 8
  %8 = alloca ptr, align 8
  %9 = alloca ptr, align 8
  %10 = alloca ptr, align 8
  %11 = alloca ptr, align 8
  %12 = alloca i32, align 4
  %13 = alloca i32, align 4
  %14 = alloca ptr, align 8
  %15 = alloca i32, align 4
  store ptr %0, ptr %7, align 8, !tbaa !23
  store ptr %1, ptr %8, align 8, !tbaa !17
  store ptr %2, ptr %9, align 8, !tbaa !17
  store ptr %3, ptr %10, align 8, !tbaa !17
  store ptr %4, ptr %11, align 8, !tbaa !31
  %16 = load ptr, ptr %7, align 8
  call void @llvm.lifetime.start.p0(i64 4, ptr %12) #13
  store i32 0, ptr %12, align 4, !tbaa !15
  call void @llvm.lifetime.start.p0(i64 4, ptr %13) #13
  store i32 0, ptr %13, align 4, !tbaa !14
  call void @llvm.lifetime.start.p0(i64 8, ptr %14) #13
  %17 = getelementptr inbounds nuw %"class.icu_77::ICUDataTable", ptr %16, i32 0, i32 0
  %18 = load ptr, ptr %17, align 8, !tbaa !27
  %19 = getelementptr inbounds nuw %"class.icu_77::ICUDataTable", ptr %16, i32 0, i32 1
  %20 = call noundef ptr @_ZNK6icu_776Locale7getNameEv(ptr noundef nonnull align 8 dereferenceable(217) %19)
  %21 = load ptr, ptr %8, align 8, !tbaa !17
  %22 = load ptr, ptr %9, align 8, !tbaa !17
  %23 = load ptr, ptr %10, align 8, !tbaa !17
  %24 = call ptr @uloc_getTableStringWithFallback_77(ptr noundef %18, ptr noundef %20, ptr noundef %21, ptr noundef %22, ptr noundef %23, ptr noundef %13, ptr noundef %12)
  store ptr %24, ptr %14, align 8, !tbaa !33
  %25 = load i32, ptr %12, align 4, !tbaa !15
  %26 = call noundef signext i8 @_ZL9U_SUCCESS10UErrorCode(i32 noundef %25)
  %27 = icmp ne i8 %26, 0
  br i1 %27, label %28, label %33

28:                                               ; preds = %5
  %29 = load ptr, ptr %11, align 8, !tbaa !31
  %30 = load ptr, ptr %14, align 8, !tbaa !33
  %31 = load i32, ptr %13, align 4, !tbaa !14
  %32 = call noundef nonnull align 8 dereferenceable(64) ptr @_ZN6icu_7713UnicodeString5setToEPKDsi(ptr noundef nonnull align 8 dereferenceable(64) %29, ptr noundef %30, i32 noundef %31)
  store ptr %32, ptr %6, align 8
  store i32 1, ptr %15, align 4
  br label %36

33:                                               ; preds = %5
  %34 = load ptr, ptr %11, align 8, !tbaa !31
  call void @_ZN6icu_7713UnicodeString10setToBogusEv(ptr noundef nonnull align 8 dereferenceable(64) %34)
  %35 = load ptr, ptr %11, align 8, !tbaa !31
  store ptr %35, ptr %6, align 8
  store i32 1, ptr %15, align 4
  br label %36

36:                                               ; preds = %33, %28
  call void @llvm.lifetime.end.p0(i64 8, ptr %14) #13
  call void @llvm.lifetime.end.p0(i64 4, ptr %13) #13
  call void @llvm.lifetime.end.p0(i64 4, ptr %12) #13
  %37 = load ptr, ptr %6, align 8
  ret ptr %37
}

; Function Attrs: inlinehint mustprogress uwtable
define linkonce_odr noundef nonnull align 8 dereferenceable(64) ptr @_ZNK6icu_7712ICUDataTable3getEPKcS2_RNS_13UnicodeStringE(ptr noundef nonnull align 8 dereferenceable(232) %0, ptr noundef %1, ptr noundef %2, ptr noundef nonnull align 8 dereferenceable(64) %3) #3 comdat align 2 {
  %5 = alloca ptr, align 8
  %6 = alloca ptr, align 8
  %7 = alloca ptr, align 8
  %8 = alloca ptr, align 8
  store ptr %0, ptr %5, align 8, !tbaa !23
  store ptr %1, ptr %6, align 8, !tbaa !17
  store ptr %2, ptr %7, align 8, !tbaa !17
  store ptr %3, ptr %8, align 8, !tbaa !31
  %9 = load ptr, ptr %5, align 8
  %10 = load ptr, ptr %6, align 8, !tbaa !17
  %11 = load ptr, ptr %7, align 8, !tbaa !17
  %12 = load ptr, ptr %8, align 8, !tbaa !31
  %13 = call noundef nonnull align 8 dereferenceable(64) ptr @_ZNK6icu_7712ICUDataTable3getEPKcS2_S2_RNS_13UnicodeStringE(ptr noundef nonnull align 8 dereferenceable(232) %9, ptr noundef %10, ptr noundef null, ptr noundef %11, ptr noundef nonnull align 8 dereferenceable(64) %12)
  ret ptr %13
}

; Function Attrs: inlinehint mustprogress nounwind uwtable
define linkonce_odr noundef signext i8 @_ZNK6icu_7713UnicodeString7isBogusEv(ptr noundef nonnull align 8 dereferenceable(64) %0) #2 comdat align 2 {
  %2 = alloca ptr, align 8
  store ptr %0, ptr %2, align 8, !tbaa !31
  %3 = load ptr, ptr %2, align 8
  %4 = getelementptr inbounds nuw %"class.icu_77::UnicodeString", ptr %3, i32 0, i32 1
  %5 = getelementptr inbounds nuw %struct.anon.0, ptr %4, i32 0, i32 0
  %6 = load i16, ptr %5, align 8, !tbaa !58
  %7 = sext i16 %6 to i32
  %8 = and i32 %7, 1
  %9 = trunc i32 %8 to i8
  ret i8 %9
}

; Function Attrs: inlinehint mustprogress uwtable
define linkonce_odr noundef nonnull align 8 dereferenceable(64) ptr @_ZNK6icu_7712ICUDataTable13getNoFallbackEPKcS2_RNS_13UnicodeStringE(ptr noundef nonnull align 8 dereferenceable(232) %0, ptr noundef %1, ptr noundef %2, ptr noundef nonnull align 8 dereferenceable(64) %3) #3 comdat align 2 {
  %5 = alloca ptr, align 8
  %6 = alloca ptr, align 8
  %7 = alloca ptr, align 8
  %8 = alloca ptr, align 8
  store ptr %0, ptr %5, align 8, !tbaa !23
  store ptr %1, ptr %6, align 8, !tbaa !17
  store ptr %2, ptr %7, align 8, !tbaa !17
  store ptr %3, ptr %8, align 8, !tbaa !31
  %9 = load ptr, ptr %5, align 8
  %10 = load ptr, ptr %6, align 8, !tbaa !17
  %11 = load ptr, ptr %7, align 8, !tbaa !17
  %12 = load ptr, ptr %8, align 8, !tbaa !31
  %13 = call noundef nonnull align 8 dereferenceable(64) ptr @_ZNK6icu_7712ICUDataTable13getNoFallbackEPKcS2_S2_RNS_13UnicodeStringE(ptr noundef nonnull align 8 dereferenceable(232) %9, ptr noundef %10, ptr noundef null, ptr noundef %11, ptr noundef nonnull align 8 dereferenceable(64) %12)
  ret ptr %13
}

; Function Attrs: mustprogress uwtable
define noundef nonnull align 8 dereferenceable(64) ptr @_ZNK6icu_7722LocaleDisplayNamesImpl17scriptDisplayNameEPKcRNS_13UnicodeStringEb(ptr noundef nonnull align 8 dereferenceable(1206) %0, ptr noundef %1, ptr noundef nonnull align 8 dereferenceable(64) %2, i1 noundef zeroext %3) #1 align 2 {
  %5 = alloca ptr, align 8
  %6 = alloca ptr, align 8
  %7 = alloca ptr, align 8
  %8 = alloca ptr, align 8
  %9 = alloca i8, align 1
  store ptr %0, ptr %6, align 8, !tbaa !38
  store ptr %1, ptr %7, align 8, !tbaa !17
  store ptr %2, ptr %8, align 8, !tbaa !31
  %10 = zext i1 %3 to i8
  store i8 %10, ptr %9, align 1, !tbaa !59
  %11 = load ptr, ptr %6, align 8
  %12 = getelementptr inbounds nuw %"class.icu_77::LocaleDisplayNamesImpl", ptr %11, i32 0, i32 16
  %13 = load i32, ptr %12, align 8, !tbaa !54
  %14 = icmp eq i32 %13, 513
  br i1 %14, label %15, label %34

15:                                               ; preds = %4
  %16 = getelementptr inbounds nuw %"class.icu_77::LocaleDisplayNamesImpl", ptr %11, i32 0, i32 4
  %17 = load ptr, ptr %7, align 8, !tbaa !17
  %18 = load ptr, ptr %8, align 8, !tbaa !31
  %19 = call noundef nonnull align 8 dereferenceable(64) ptr @_ZNK6icu_7712ICUDataTable13getNoFallbackEPKcS2_RNS_13UnicodeStringE(ptr noundef nonnull align 8 dereferenceable(232) %16, ptr noundef @.str.13, ptr noundef %17, ptr noundef nonnull align 8 dereferenceable(64) %18)
  %20 = load ptr, ptr %8, align 8, !tbaa !31
  %21 = call noundef signext i8 @_ZNK6icu_7713UnicodeString7isBogusEv(ptr noundef nonnull align 8 dereferenceable(64) %20)
  %22 = icmp ne i8 %21, 0
  br i1 %22, label %33, label %23

23:                                               ; preds = %15
  %24 = load i8, ptr %9, align 1, !tbaa !59, !range !64, !noundef !65
  %25 = trunc i8 %24 to i1
  br i1 %25, label %26, label %28

26:                                               ; preds = %23
  %27 = load ptr, ptr %8, align 8, !tbaa !31
  br label %31

28:                                               ; preds = %23
  %29 = load ptr, ptr %8, align 8, !tbaa !31
  %30 = call noundef nonnull align 8 dereferenceable(64) ptr @_ZNK6icu_7722LocaleDisplayNamesImpl24adjustForUsageAndContextENS0_15CapContextUsageERNS_13UnicodeStringE(ptr noundef nonnull align 8 dereferenceable(1206) %11, i32 noundef 1, ptr noundef nonnull align 8 dereferenceable(64) %29)
  br label %31

31:                                               ; preds = %28, %26
  %32 = phi ptr [ %27, %26 ], [ %30, %28 ]
  store ptr %32, ptr %5, align 8
  br label %58

33:                                               ; preds = %15
  br label %34

34:                                               ; preds = %33, %4
  %35 = getelementptr inbounds nuw %"class.icu_77::LocaleDisplayNamesImpl", ptr %11, i32 0, i32 17
  %36 = load i32, ptr %35, align 4, !tbaa !55
  %37 = icmp eq i32 %36, 768
  br i1 %37, label %38, label %43

38:                                               ; preds = %34
  %39 = getelementptr inbounds nuw %"class.icu_77::LocaleDisplayNamesImpl", ptr %11, i32 0, i32 4
  %40 = load ptr, ptr %7, align 8, !tbaa !17
  %41 = load ptr, ptr %8, align 8, !tbaa !31
  %42 = call noundef nonnull align 8 dereferenceable(64) ptr @_ZNK6icu_7712ICUDataTable3getEPKcS2_RNS_13UnicodeStringE(ptr noundef nonnull align 8 dereferenceable(232) %39, ptr noundef @.str.14, ptr noundef %40, ptr noundef nonnull align 8 dereferenceable(64) %41)
  br label %48

43:                                               ; preds = %34
  %44 = getelementptr inbounds nuw %"class.icu_77::LocaleDisplayNamesImpl", ptr %11, i32 0, i32 4
  %45 = load ptr, ptr %7, align 8, !tbaa !17
  %46 = load ptr, ptr %8, align 8, !tbaa !31
  %47 = call noundef nonnull align 8 dereferenceable(64) ptr @_ZNK6icu_7712ICUDataTable13getNoFallbackEPKcS2_RNS_13UnicodeStringE(ptr noundef nonnull align 8 dereferenceable(232) %44, ptr noundef @.str.14, ptr noundef %45, ptr noundef nonnull align 8 dereferenceable(64) %46)
  br label %48

48:                                               ; preds = %43, %38
  %49 = load i8, ptr %9, align 1, !tbaa !59, !range !64, !noundef !65
  %50 = trunc i8 %49 to i1
  br i1 %50, label %51, label %53

51:                                               ; preds = %48
  %52 = load ptr, ptr %8, align 8, !tbaa !31
  br label %56

53:                                               ; preds = %48
  %54 = load ptr, ptr %8, align 8, !tbaa !31
  %55 = call noundef nonnull align 8 dereferenceable(64) ptr @_ZNK6icu_7722LocaleDisplayNamesImpl24adjustForUsageAndContextENS0_15CapContextUsageERNS_13UnicodeStringE(ptr noundef nonnull align 8 dereferenceable(1206) %11, i32 noundef 1, ptr noundef nonnull align 8 dereferenceable(64) %54)
  br label %56

56:                                               ; preds = %53, %51
  %57 = phi ptr [ %52, %51 ], [ %55, %53 ]
  store ptr %57, ptr %5, align 8
  br label %58

58:                                               ; preds = %56, %31
  %59 = load ptr, ptr %5, align 8
  ret ptr %59
}