; Function Attrs: mustprogress uwtable
define noundef nonnull align 8 dereferenceable(64) ptr @_ZNK6icu_7722LocaleDisplayNamesImpl17scriptDisplayNameEPKcRNS_13UnicodeStringEb(ptr noundef nonnull align 8 dereferenceable(1206) %0, ptr noundef %1, ptr noundef nonnull returned align 8 dereferenceable(64) %2, i1 noundef zeroext %3) local_unnamed_addr #1 align 2 {
  %5 = alloca i32, align 4
  %6 = alloca i32, align 4
  %7 = alloca i32, align 4
  %8 = alloca i32, align 4
  %9 = getelementptr inbounds nuw i8, ptr %0, i64 1192
  %10 = load i32, ptr %9, align 8, !tbaa !34
  %11 = icmp eq i32 %10, 513
  br i1 %11, label %12, label %36

12:                                               ; preds = %4
  %13 = getelementptr inbounds nuw i8, ptr %0, i64 240
  call void @llvm.lifetime.start.p0(i64 4, ptr nonnull %7) #19
  store i32 0, ptr %7, align 4, !tbaa !13
  call void @llvm.lifetime.start.p0(i64 4, ptr nonnull %8) #19
  store i32 0, ptr %8, align 4, !tbaa !12
  %14 = load ptr, ptr %13, align 8, !tbaa !15
  %15 = getelementptr inbounds nuw i8, ptr %0, i64 288
  %16 = load ptr, ptr %15, align 8, !tbaa !19
  %17 = call ptr @uloc_getTableStringWithFallback_77(ptr noundef %14, ptr noundef %16, ptr noundef nonnull @.str.13, ptr noundef null, ptr noundef %1, ptr noundef nonnull %8, ptr noundef nonnull %7)
  %18 = load i32, ptr %7, align 4, !tbaa !13
  %19 = icmp sgt i32 %18, 0
  br i1 %19, label %31, label %20

20:                                               ; preds = %12
  %21 = load i32, ptr %8, align 4, !tbaa !12
  call void @_ZN6icu_7713UnicodeString7unBogusEv(ptr noundef nonnull align 8 dereferenceable(64) %2)
  %22 = getelementptr inbounds nuw i8, ptr %2, i64 8
  %23 = load i16, ptr %22, align 8, !tbaa !20
  %24 = icmp slt i16 %23, 0
  %25 = ashr i16 %23, 5
  %26 = sext i16 %25 to i32
  %27 = getelementptr inbounds nuw i8, ptr %2, i64 12
  %28 = load i32, ptr %27, align 4
  %29 = select i1 %24, i32 %28, i32 %26
  %30 = call noundef nonnull align 8 dereferenceable(64) ptr @_ZN6icu_7713UnicodeString9doReplaceEiiPKDsii(ptr noundef nonnull align 8 dereferenceable(64) %2, i32 noundef 0, i32 noundef %29, ptr noundef %17, i32 noundef 0, i32 noundef %21)
  br label %_ZNK6icu_7712ICUDataTable13getNoFallbackEPKcS2_RNS_13UnicodeStringE.exit

31:                                               ; preds = %12
  call void @_ZN6icu_7713UnicodeString10setToBogusEv(ptr noundef nonnull align 8 dereferenceable(64) %2)
  br label %_ZNK6icu_7712ICUDataTable13getNoFallbackEPKcS2_RNS_13UnicodeStringE.exit

_ZNK6icu_7712ICUDataTable13getNoFallbackEPKcS2_RNS_13UnicodeStringE.exit: ; preds = %20, %31
  call void @llvm.lifetime.end.p0(i64 4, ptr nonnull %8) #19
  call void @llvm.lifetime.end.p0(i64 4, ptr nonnull %7) #19
  %32 = getelementptr inbounds nuw i8, ptr %2, i64 8
  %33 = load i16, ptr %32, align 8, !tbaa !20
  %34 = and i16 %33, 1
  %.not = icmp eq i16 %34, 0
  br i1 %.not, label %35, label %36

35:                                               ; preds = %_ZNK6icu_7712ICUDataTable13getNoFallbackEPKcS2_RNS_13UnicodeStringE.exit
  br i1 %3, label %64, label %.sink.split

36:                                               ; preds = %_ZNK6icu_7712ICUDataTable13getNoFallbackEPKcS2_RNS_13UnicodeStringE.exit, %4
  %37 = getelementptr inbounds nuw i8, ptr %0, i64 1196
  %38 = load i32, ptr %37, align 4, !tbaa !35
  %39 = icmp eq i32 %38, 768
  %40 = getelementptr inbounds nuw i8, ptr %0, i64 240
  br i1 %39, label %41, label %43

41:                                               ; preds = %36
  %42 = call noundef nonnull align 8 dereferenceable(64) ptr @_ZNK6icu_7712ICUDataTable3getEPKcS2_S2_RNS_13UnicodeStringE(ptr noundef nonnull align 8 dereferenceable(232) %40, ptr noundef nonnull @.str.14, ptr noundef null, ptr noundef %1, ptr noundef nonnull align 8 dereferenceable(64) %2)
  br label %62

43:                                               ; preds = %36
  call void @llvm.lifetime.start.p0(i64 4, ptr nonnull %5) #19
  store i32 0, ptr %5, align 4, !tbaa !13
  call void @llvm.lifetime.start.p0(i64 4, ptr nonnull %6) #19
  store i32 0, ptr %6, align 4, !tbaa !12
  %44 = load ptr, ptr %40, align 8, !tbaa !15
  %45 = getelementptr inbounds nuw i8, ptr %0, i64 288
  %46 = load ptr, ptr %45, align 8, !tbaa !19
  %47 = call ptr @uloc_getTableStringWithFallback_77(ptr noundef %44, ptr noundef %46, ptr noundef nonnull @.str.14, ptr noundef null, ptr noundef %1, ptr noundef nonnull %6, ptr noundef nonnull %5)
  %48 = load i32, ptr %5, align 4, !tbaa !13
  %49 = icmp sgt i32 %48, 0
  br i1 %49, label %61, label %50

50:                                               ; preds = %43
  %51 = load i32, ptr %6, align 4, !tbaa !12
  call void @_ZN6icu_7713UnicodeString7unBogusEv(ptr noundef nonnull align 8 dereferenceable(64) %2)
  %52 = getelementptr inbounds nuw i8, ptr %2, i64 8
  %53 = load i16, ptr %52, align 8, !tbaa !20
  %54 = icmp slt i16 %53, 0
  %55 = ashr i16 %53, 5
  %56 = sext i16 %55 to i32
  %57 = getelementptr inbounds nuw i8, ptr %2, i64 12
  %58 = load i32, ptr %57, align 4
  %59 = select i1 %54, i32 %58, i32 %56
  %60 = call noundef nonnull align 8 dereferenceable(64) ptr @_ZN6icu_7713UnicodeString9doReplaceEiiPKDsii(ptr noundef nonnull align 8 dereferenceable(64) %2, i32 noundef 0, i32 noundef %59, ptr noundef %47, i32 noundef 0, i32 noundef %51)
  br label %_ZNK6icu_7712ICUDataTable13getNoFallbackEPKcS2_RNS_13UnicodeStringE.exit15

61:                                               ; preds = %43
  call void @_ZN6icu_7713UnicodeString10setToBogusEv(ptr noundef nonnull align 8 dereferenceable(64) %2)
  br label %_ZNK6icu_7712ICUDataTable13getNoFallbackEPKcS2_RNS_13UnicodeStringE.exit15

_ZNK6icu_7712ICUDataTable13getNoFallbackEPKcS2_RNS_13UnicodeStringE.exit15: ; preds = %50, %61
  call void @llvm.lifetime.end.p0(i64 4, ptr nonnull %6) #19
  call void @llvm.lifetime.end.p0(i64 4, ptr nonnull %5) #19
  br label %62

62:                                               ; preds = %_ZNK6icu_7712ICUDataTable13getNoFallbackEPKcS2_RNS_13UnicodeStringE.exit15, %41
  br i1 %3, label %64, label %.sink.split

.sink.split:                                      ; preds = %62, %35
  %63 = call noundef nonnull align 8 dereferenceable(64) ptr @_ZNK6icu_7722LocaleDisplayNamesImpl24adjustForUsageAndContextENS0_15CapContextUsageERNS_13UnicodeStringE(ptr noundef nonnull align 8 dereferenceable(1206) %0, i32 noundef 1, ptr noundef nonnull align 8 dereferenceable(64) %2)
  br label %64

64:                                               ; preds = %.sink.split, %62, %35
  ret ptr %2
}